target datalayout = "e-m:e-p270:32:32-p271:32:32-p272:64:64-i64:64-i128:128-f80:128-n8:16:32:64-S128"
target triple = "x86_64-pc-linux-gnu"

%union.pthread_mutex_t = type { %struct.__pthread_mutex_s }
%struct.__pthread_mutex_s = type { i32, i32, i32, i32, i32, i16, i16, %struct.__pthread_internal_list }
%struct.__pthread_internal_list = type { ptr, ptr }
%struct.slurm_conf_t = type { i64, ptr, i16, ptr, ptr, ptr, ptr, ptr, i16, ptr, ptr, ptr, ptr, ptr, ptr, ptr, i16, ptr, ptr, ptr, ptr, i16, ptr, ptr, ptr, i64, ptr, ptr, ptr, ptr, i16, ptr, ptr, i16, i32, ptr, i32, ptr, i32, i32, ptr, ptr, i64, i64, ptr, i16, i16, ptr, i32, i32, ptr, i32, ptr, i32, i16, i16, i16, ptr, i16, i16, ptr, ptr, i32, i16, i16, ptr, i32, i16, ptr, ptr, ptr, ptr, i16, ptr, ptr, ptr, ptr, i32, ptr, ptr, ptr, ptr, i16, i16, ptr, i32, i32, i32, i16, i16, ptr, ptr, i16, ptr, ptr, i32, i32, i32, i32, i32, i64, i32, i32, i16, ptr, ptr, i32, ptr, ptr, ptr, i16, i32, ptr, ptr, i16, ptr, ptr, i32, i16, ptr, ptr, ptr, ptr, i32, i32, i16, i16, i32, ptr, i16, ptr, i32, i32, i32, i32, i32, i32, ptr, i16, ptr, ptr, i32, i16, ptr, i32, i16, i16, ptr, ptr, ptr, i16, ptr, ptr, ptr, ptr, i16, i16, ptr, i16, ptr, i16, ptr, i16, ptr, i16, ptr, ptr, ptr, ptr, i16, ptr, ptr, ptr, i32, ptr, i32, ptr, ptr, i16, ptr, ptr, i32, i16, ptr, ptr, i16, i16, ptr, i16, ptr, ptr, ptr, i32, ptr, i16, i16, ptr, ptr, ptr, ptr, ptr, ptr, ptr, ptr, i16, i32, i16, ptr, ptr, ptr, ptr, i32, ptr, ptr, ptr, i16, ptr, ptr, ptr, i16, ptr, i16, ptr, i16, i16, ptr }
%union.pthread_cond_t = type { %struct.__pthread_cond_s }
%struct.__pthread_cond_s = type { %union.__atomic_wide_counter, %union.__atomic_wide_counter, [2 x i32], [2 x i32], i32, i32, [2 x i32] }
%union.__atomic_wide_counter = type { i64 }
%struct.sockaddr_storage = type { i16, [118 x i8], i64 }
%struct.slurm_msg = type { %struct.sockaddr_storage, ptr, i32, i32, i32, i8, i32, i8, i32, ptr, ptr, i32, ptr, ptr, i16, i8, i16, i16, %struct.forward, ptr, %struct.sockaddr_storage, ptr }
%struct.forward = type { %struct.slurm_node_alias_addrs_t, i16, i16, ptr, i32, i16, i16 }
%struct.slurm_node_alias_addrs_t = type { i64, ptr, ptr, i32, ptr }
%struct.dep_msg_t = type { i32, i32, ptr, i8, i32, ptr, i32 }

@.str = private unnamed_addr constant [10 x i8] c"fed_mgr.c\00", align 1
@.str.1 = private unnamed_addr constant [29 x i8] c"%s: pthread_mutex_lock(): %m\00", align 1
@.str.2 = private unnamed_addr constant [31 x i8] c"%s: pthread_mutex_unlock(): %m\00", align 1
@remote_dep_recv_list = internal global ptr null, align 8
@slurm_conf = external global %struct.slurm_conf_t, align 8
@remote_dep_cond = internal global %union.pthread_cond_t zeroinitializer, align 8
@.str.72 = private unnamed_addr constant [25 x i8] c"FEDR: %s: Got %s: Job %u\00", align 1
@.str.73 = private unnamed_addr constant [39 x i8] c"%s:%d %s: pthread_cond_broadcast(): %m\00", align 1
@__func__.fed_mgr_q_dep_msg = private unnamed_addr constant [18 x i8] c"fed_mgr_q_dep_msg\00", align 1
@remote_dep_recv_mutex = internal global %union.pthread_mutex_t zeroinitializer, align 8

; Function Attrs: nounwind uwtable
define dso_local i32 @fed_mgr_q_dep_msg(ptr noundef %0) #0 {
  %2 = alloca ptr, align 8
  %3 = alloca ptr, align 8
  %4 = alloca ptr, align 8
  %5 = alloca i32, align 4
  %6 = alloca i32, align 4
  %7 = alloca i32, align 4
  store ptr %0, ptr %2, align 8
  call void @llvm.lifetime.start.p0(i64 8, ptr %3) #9
  call void @llvm.lifetime.start.p0(i64 8, ptr %4) #9
  %8 = load ptr, ptr %2, align 8
  %9 = getelementptr inbounds nuw %struct.slurm_msg, ptr %8, i32 0, i32 13
  %10 = load ptr, ptr %9, align 8
  store ptr %10, ptr %4, align 8
  br label %11

11:                                               ; preds = %1
  %12 = load i64, ptr getelementptr inbounds nuw (%struct.slurm_conf_t, ptr @slurm_conf, i32 0, i32 42), align 8
  %13 = and i64 %12, 281474976710656
  %14 = icmp ne i64 %13, 0
  br i1 %14, label %15, label %30

15:                                               ; preds = %11
  br label %16

16:                                               ; preds = %15
  %17 = call i32 @get_log_level()
  %18 = icmp sge i32 %17, 4
  br i1 %18, label %19, label %27

19:                                               ; preds = %16
  %20 = load ptr, ptr %2, align 8
  %21 = getelementptr inbounds nuw %struct.slurm_msg, ptr %20, i32 0, i32 16
  %22 = load i16, ptr %21, align 4
  %23 = call ptr @rpc_num2string(i16 noundef zeroext %22)
  %24 = load ptr, ptr %4, align 8
  %25 = getelementptr inbounds nuw %struct.dep_msg_t, ptr %24, i32 0, i32 4
  %26 = load i32, ptr %25, align 4
  call void (i32, ptr, ...) @log_var(i32 noundef 4, ptr noundef @.str.72, ptr noundef @__func__.fed_mgr_q_dep_msg, ptr noundef %23, i32 noundef %26)
  br label %27

27:                                               ; preds = %19, %16
  br label %28

28:                                               ; preds = %27
  br label %29

29:                                               ; preds = %28
  br label %30

30:                                               ; preds = %29, %11
  br label %31

31:                                               ; preds = %30
  br label %32

32:                                               ; preds = %31
  %33 = call ptr @slurm_xcalloc(i64 noundef 1, i64 noundef 40, i1 noundef zeroext true, i1 noundef zeroext false, ptr noundef @.str, i32 noundef 6029, ptr noundef @__func__.fed_mgr_q_dep_msg)
  store ptr %33, ptr %3, align 8
  %34 = load ptr, ptr %4, align 8
  %35 = getelementptr inbounds nuw %struct.dep_msg_t, ptr %34, i32 0, i32 4
  %36 = load i32, ptr %35, align 4
  %37 = load ptr, ptr %3, align 8
  %38 = getelementptr inbounds nuw %struct.dep_msg_t, ptr %37, i32 0, i32 4
  store i32 %36, ptr %38, align 4
  %39 = load ptr, ptr %4, align 8
  %40 = getelementptr inbounds nuw %struct.dep_msg_t, ptr %39, i32 0, i32 5
  %41 = load ptr, ptr %40, align 8
  %42 = load ptr, ptr %3, align 8
  %43 = getelementptr inbounds nuw %struct.dep_msg_t, ptr %42, i32 0, i32 5
  store ptr %41, ptr %43, align 8
  %44 = load ptr, ptr %4, align 8
  %45 = getelementptr inbounds nuw %struct.dep_msg_t, ptr %44, i32 0, i32 2
  %46 = load ptr, ptr %45, align 8
  %47 = load ptr, ptr %3, align 8
  %48 = getelementptr inbounds nuw %struct.dep_msg_t, ptr %47, i32 0, i32 2
  store ptr %46, ptr %48, align 8
  %49 = load ptr, ptr %4, align 8
  %50 = getelementptr inbounds nuw %struct.dep_msg_t, ptr %49, i32 0, i32 5
  store ptr null, ptr %50, align 8
  %51 = load ptr, ptr %4, align 8
  %52 = getelementptr inbounds nuw %struct.dep_msg_t, ptr %51, i32 0, i32 2
  store ptr null, ptr %52, align 8
  %53 = load ptr, ptr %4, align 8
  %54 = getelementptr inbounds nuw %struct.dep_msg_t, ptr %53, i32 0, i32 1
  %55 = load i32, ptr %54, align 4
  %56 = load ptr, ptr %3, align 8
  %57 = getelementptr inbounds nuw %struct.dep_msg_t, ptr %56, i32 0, i32 1
  store i32 %55, ptr %57, align 4
  %58 = load ptr, ptr %4, align 8
  %59 = getelementptr inbounds nuw %struct.dep_msg_t, ptr %58, i32 0, i32 0
  %60 = load i32, ptr %59, align 8
  %61 = load ptr, ptr %3, align 8
  %62 = getelementptr inbounds nuw %struct.dep_msg_t, ptr %61, i32 0, i32 0
  store i32 %60, ptr %62, align 8
  %63 = load ptr, ptr %4, align 8
  %64 = getelementptr inbounds nuw %struct.dep_msg_t, ptr %63, i32 0, i32 3
  %65 = load i8, ptr %64, align 8, !range !11, !noundef !12
  %66 = trunc i8 %65 to i1
  %67 = load ptr, ptr %3, align 8
  %68 = getelementptr inbounds nuw %struct.dep_msg_t, ptr %67, i32 0, i32 3
  %69 = zext i1 %66 to i8
  store i8 %69, ptr %68, align 8
  %70 = load ptr, ptr %4, align 8
  %71 = getelementptr inbounds nuw %struct.dep_msg_t, ptr %70, i32 0, i32 6
  %72 = load i32, ptr %71, align 8
  %73 = load ptr, ptr %3, align 8
  %74 = getelementptr inbounds nuw %struct.dep_msg_t, ptr %73, i32 0, i32 6
  store i32 %72, ptr %74, align 8
  %75 = load ptr, ptr @remote_dep_recv_list, align 8
  %76 = load ptr, ptr %3, align 8
  call void @list_append(ptr noundef %75, ptr noundef %76)
  br label %77

77:                                               ; preds = %32
  call void @llvm.lifetime.start.p0(i64 4, ptr %5) #9
  %78 = call i32 @pthread_mutex_lock(ptr noundef @remote_dep_recv_mutex) #9
  store i32 %78, ptr %5, align 4
  %79 = load i32, ptr %5, align 4
  %80 = icmp ne i32 %79, 0
  br i1 %80, label %81, label %84

81:                                               ; preds = %77
  %82 = load i32, ptr %5, align 4
  %83 = call ptr @__errno_location() #10
  store i32 %82, ptr %83, align 4
  call void (ptr, ...) @fatal_abort(ptr noundef @.str.1, ptr noundef @__func__.fed_mgr_q_dep_msg) #11
  unreachable

84:                                               ; preds = %77
  call void @llvm.lifetime.end.p0(i64 4, ptr %5) #9
  br label %85

85:                                               ; preds = %84
  br label %86

86:                                               ; preds = %85
  br label %87

87:                                               ; preds = %86
  call void @llvm.lifetime.start.p0(i64 4, ptr %6) #9
  %88 = call i32 @pthread_cond_broadcast(ptr noundef @remote_dep_cond) #9
  store i32 %88, ptr %6, align 4
  %89 = load i32, ptr %6, align 4
  %90 = icmp ne i32 %89, 0
  br i1 %90, label %91, label %95

91:                                               ; preds = %87
  %92 = load i32, ptr %6, align 4
  %93 = call ptr @__errno_location() #10
  store i32 %92, ptr %93, align 4
  %94 = call i32 (ptr, ...) @error(ptr noundef @.str.73, ptr noundef @.str, i32 noundef 6043, ptr noundef @__func__.fed_mgr_q_dep_msg)
  br label %95

95:                                               ; preds = %91, %87
  call void @llvm.lifetime.end.p0(i64 4, ptr %6) #9
  br label %96

96:                                               ; preds = %95
  br label %97

97:                                               ; preds = %96
  br label %98

98:                                               ; preds = %97
  call void @llvm.lifetime.start.p0(i64 4, ptr %7) #9
  %99 = call i32 @pthread_mutex_unlock(ptr noundef @remote_dep_recv_mutex) #9
  store i32 %99, ptr %7, align 4
  %100 = load i32, ptr %7, align 4
  %101 = icmp ne i32 %100, 0
  br i1 %101, label %102, label %105

102:                                              ; preds = %98
  %103 = load i32, ptr %7, align 4
  %104 = call ptr @__errno_location() #10
  store i32 %103, ptr %104, align 4
  call void (ptr, ...) @fatal_abort(ptr noundef @.str.2, ptr noundef @__func__.fed_mgr_q_dep_msg) #11
  unreachable

105:                                              ; preds = %98
  call void @llvm.lifetime.end.p0(i64 4, ptr %7) #9
  br label %106

106:                                              ; preds = %105
  br label %107

107:                                              ; preds = %106
  call void @llvm.lifetime.end.p0(i64 8, ptr %4) #9
  call void @llvm.lifetime.end.p0(i64 8, ptr %3) #9
  ret i32 0
}