; Function Attrs: nounwind uwtable
define dso_local noundef i32 @fed_mgr_q_dep_msg(ptr noundef readonly captures(none) %0) local_unnamed_addr #0 {
  %2 = getelementptr inbounds nuw i8, ptr %0, i64 200
  %3 = load ptr, ptr %2, align 8
  %4 = load i64, ptr getelementptr inbounds nuw (i8, ptr @slurm_conf, i64 320), align 8
  %5 = and i64 %4, 281474976710656
  %.not = icmp eq i64 %5, 0
  br i1 %.not, label %15, label %6

6:                                                ; preds = %1
  %7 = tail call i32 @get_log_level() #16
  %8 = icmp sgt i32 %7, 3
  br i1 %8, label %9, label %15

9:                                                ; preds = %6
  %10 = getelementptr inbounds nuw i8, ptr %0, i64 212
  %11 = load i16, ptr %10, align 4
  %12 = tail call ptr @rpc_num2string(i16 noundef zeroext %11) #16
  %13 = getelementptr inbounds nuw i8, ptr %3, i64 20
  %14 = load i32, ptr %13, align 4
  tail call void (i32, ptr, ...) @log_var(i32 noundef 4, ptr noundef nonnull @.str.72, ptr noundef nonnull @__func__.fed_mgr_q_dep_msg, ptr noundef %12, i32 noundef %14) #16
  br label %15

15:                                               ; preds = %6, %9, %1
  %16 = tail call ptr @slurm_xcalloc(i64 noundef 1, i64 noundef 40, i1 noundef zeroext true, i1 noundef zeroext false, ptr noundef nonnull @.str, i32 noundef 6029, ptr noundef nonnull @__func__.fed_mgr_q_dep_msg) #16
  %17 = getelementptr inbounds nuw i8, ptr %3, i64 20
  %18 = load i32, ptr %17, align 4
  %19 = getelementptr inbounds nuw i8, ptr %16, i64 20
  store i32 %18, ptr %19, align 4
  %20 = getelementptr inbounds nuw i8, ptr %3, i64 24
  %21 = load ptr, ptr %20, align 8
  %22 = getelementptr inbounds nuw i8, ptr %16, i64 24
  store ptr %21, ptr %22, align 8
  %23 = getelementptr inbounds nuw i8, ptr %3, i64 8
  %24 = load ptr, ptr %23, align 8
  %25 = getelementptr inbounds nuw i8, ptr %16, i64 8
  store ptr %24, ptr %25, align 8
  store ptr null, ptr %20, align 8
  store ptr null, ptr %23, align 8
  %26 = getelementptr inbounds nuw i8, ptr %3, i64 4
  %27 = load i32, ptr %26, align 4
  %28 = getelementptr inbounds nuw i8, ptr %16, i64 4
  store i32 %27, ptr %28, align 4
  %29 = load i32, ptr %3, align 8
  store i32 %29, ptr %16, align 8
  %30 = getelementptr inbounds nuw i8, ptr %3, i64 16
  %31 = load i8, ptr %30, align 8, !range !12, !noundef !13
  %32 = getelementptr inbounds nuw i8, ptr %16, i64 16
  store i8 %31, ptr %32, align 8
  %33 = getelementptr inbounds nuw i8, ptr %3, i64 32
  %34 = load i32, ptr %33, align 8
  %35 = getelementptr inbounds nuw i8, ptr %16, i64 32
  store i32 %34, ptr %35, align 8
  %36 = load ptr, ptr @remote_dep_recv_list, align 8
  tail call void @list_append(ptr noundef %36, ptr noundef nonnull %16) #16
  %37 = tail call i32 @pthread_mutex_lock(ptr noundef nonnull @remote_dep_recv_mutex) #16
  %.not27 = icmp eq i32 %37, 0
  br i1 %.not27, label %40, label %38

38:                                               ; preds = %15
  %39 = tail call ptr @__errno_location() #17
  store i32 %37, ptr %39, align 4
  tail call void (ptr, ...) @fatal_abort(ptr noundef nonnull @.str.1, ptr noundef nonnull @__func__.fed_mgr_q_dep_msg) #18
  unreachable

40:                                               ; preds = %15
  %41 = tail call i32 @pthread_cond_broadcast(ptr noundef nonnull @remote_dep_cond) #16
  %.not28 = icmp eq i32 %41, 0
  br i1 %.not28, label %45, label %42

42:                                               ; preds = %40
  %43 = tail call ptr @__errno_location() #17
  store i32 %41, ptr %43, align 4
  %44 = tail call i32 (ptr, ...) @error(ptr noundef nonnull @.str.73, ptr noundef nonnull @.str, i32 noundef 6043, ptr noundef nonnull @__func__.fed_mgr_q_dep_msg) #16
  br label %45

45:                                               ; preds = %42, %40
  %46 = tail call i32 @pthread_mutex_unlock(ptr noundef nonnull @remote_dep_recv_mutex) #16
  %.not29 = icmp eq i32 %46, 0
  br i1 %.not29, label %49, label %47

47:                                               ; preds = %45
  %48 = tail call ptr @__errno_location() #17
  store i32 %46, ptr %48, align 4
  tail call void (ptr, ...) @fatal_abort(ptr noundef nonnull @.str.2, ptr noundef nonnull @__func__.fed_mgr_q_dep_msg) #18
  unreachable

49:                                               ; preds = %45
  ret i32 0
}